target datalayout = "e-m:e-p270:32:32-p271:32:32-p272:64:64-i64:64-i128:128-f80:128-n8:16:32:64-S128"
target triple = "x86_64-pc-linux-gnu"

%struct.bignum_st = type { ptr, i32, i32, i32, i32 }

@.str = private unnamed_addr constant [119 x i8] c"generated/home/dtcxzyw/WorkSpace/Projects/compilers/llvm-opt-benchmark/bench/libquic/libquic/boringssl/crypto/bn/add.c\00", align 1

; Function Attrs: nounwind uwtable
define hidden i32 @BN_usub(ptr noundef %0, ptr noundef %1, ptr noundef %2) #0 {
  %4 = alloca i32, align 4
  %5 = alloca ptr, align 8
  %6 = alloca ptr, align 8
  %7 = alloca ptr, align 8
  %8 = alloca i32, align 4
  %9 = alloca i32, align 4
  %10 = alloca i32, align 4
  %11 = alloca i64, align 8
  %12 = alloca i64, align 8
  %13 = alloca ptr, align 8
  %14 = alloca ptr, align 8
  %15 = alloca ptr, align 8
  %16 = alloca i32, align 4
  %17 = alloca i32, align 4
  %18 = alloca i32, align 4
  store ptr %0, ptr %5, align 8, !tbaa !6
  store ptr %1, ptr %6, align 8, !tbaa !6
  store ptr %2, ptr %7, align 8, !tbaa !6
  call void @llvm.lifetime.start.p0(i64 4, ptr %8) #4
  call void @llvm.lifetime.start.p0(i64 4, ptr %9) #4
  call void @llvm.lifetime.start.p0(i64 4, ptr %10) #4
  call void @llvm.lifetime.start.p0(i64 8, ptr %11) #4
  call void @llvm.lifetime.start.p0(i64 8, ptr %12) #4
  call void @llvm.lifetime.start.p0(i64 8, ptr %13) #4
  call void @llvm.lifetime.start.p0(i64 8, ptr %14) #4
  call void @llvm.lifetime.start.p0(i64 8, ptr %15) #4
  call void @llvm.lifetime.start.p0(i64 4, ptr %16) #4
  call void @llvm.lifetime.start.p0(i64 4, ptr %17) #4
  %19 = load ptr, ptr %6, align 8, !tbaa !6
  %20 = getelementptr inbounds nuw %struct.bignum_st, ptr %19, i32 0, i32 1
  %21 = load i32, ptr %20, align 8, !tbaa !16
  store i32 %21, ptr %8, align 4, !tbaa !15
  %22 = load ptr, ptr %7, align 8, !tbaa !6
  %23 = getelementptr inbounds nuw %struct.bignum_st, ptr %22, i32 0, i32 1
  %24 = load i32, ptr %23, align 8, !tbaa !16
  store i32 %24, ptr %9, align 4, !tbaa !15
  %25 = load i32, ptr %8, align 4, !tbaa !15
  %26 = load i32, ptr %9, align 4, !tbaa !15
  %27 = sub nsw i32 %25, %26
  store i32 %27, ptr %10, align 4, !tbaa !15
  %28 = load i32, ptr %10, align 4, !tbaa !15
  %29 = icmp slt i32 %28, 0
  br i1 %29, label %30, label %31

30:                                               ; preds = %3
  call void @ERR_put_error(i32 noundef 3, i32 noundef 0, i32 noundef 100, ptr noundef @.str, i32 noundef 272)
  store i32 0, ptr %4, align 4
  store i32 1, ptr %18, align 4
  br label %136

31:                                               ; preds = %3
  %32 = load ptr, ptr %5, align 8, !tbaa !6
  %33 = load i32, ptr %8, align 4, !tbaa !15
  %34 = sext i32 %33 to i64
  %35 = call ptr @bn_wexpand(ptr noundef %32, i64 noundef %34)
  %36 = icmp eq ptr %35, null
  br i1 %36, label %37, label %38

37:                                               ; preds = %31
  store i32 0, ptr %4, align 4
  store i32 1, ptr %18, align 4
  br label %136

38:                                               ; preds = %31
  %39 = load ptr, ptr %6, align 8, !tbaa !6
  %40 = getelementptr inbounds nuw %struct.bignum_st, ptr %39, i32 0, i32 0
  %41 = load ptr, ptr %40, align 8, !tbaa !17
  store ptr %41, ptr %13, align 8, !tbaa !18
  %42 = load ptr, ptr %7, align 8, !tbaa !6
  %43 = getelementptr inbounds nuw %struct.bignum_st, ptr %42, i32 0, i32 0
  %44 = load ptr, ptr %43, align 8, !tbaa !17
  store ptr %44, ptr %14, align 8, !tbaa !18
  %45 = load ptr, ptr %5, align 8, !tbaa !6
  %46 = getelementptr inbounds nuw %struct.bignum_st, ptr %45, i32 0, i32 0
  %47 = load ptr, ptr %46, align 8, !tbaa !17
  store ptr %47, ptr %15, align 8, !tbaa !18
  store i32 0, ptr %17, align 4, !tbaa !15
  %48 = load i32, ptr %9, align 4, !tbaa !15
  store i32 %48, ptr %16, align 4, !tbaa !15
  br label %49

49:                                               ; preds = %85, %38
  %50 = load i32, ptr %16, align 4, !tbaa !15
  %51 = icmp ne i32 %50, 0
  br i1 %51, label %52, label %88

52:                                               ; preds = %49
  %53 = load ptr, ptr %13, align 8, !tbaa !18
  %54 = getelementptr inbounds nuw i64, ptr %53, i32 1
  store ptr %54, ptr %13, align 8, !tbaa !18
  %55 = load i64, ptr %53, align 8, !tbaa !19
  store i64 %55, ptr %11, align 8, !tbaa !19
  %56 = load ptr, ptr %14, align 8, !tbaa !18
  %57 = getelementptr inbounds nuw i64, ptr %56, i32 1
  store ptr %57, ptr %14, align 8, !tbaa !18
  %58 = load i64, ptr %56, align 8, !tbaa !19
  store i64 %58, ptr %12, align 8, !tbaa !19
  %59 = load i32, ptr %17, align 4, !tbaa !15
  %60 = icmp ne i32 %59, 0
  br i1 %60, label %61, label %71

61:                                               ; preds = %52
  %62 = load i64, ptr %11, align 8, !tbaa !19
  %63 = load i64, ptr %12, align 8, !tbaa !19
  %64 = icmp ule i64 %62, %63
  %65 = zext i1 %64 to i32
  store i32 %65, ptr %17, align 4, !tbaa !15
  %66 = load i64, ptr %11, align 8, !tbaa !19
  %67 = load i64, ptr %12, align 8, !tbaa !19
  %68 = sub i64 %66, %67
  %69 = sub i64 %68, 1
  %70 = and i64 %69, -1
  store i64 %70, ptr %11, align 8, !tbaa !19
  br label %80

71:                                               ; preds = %52
  %72 = load i64, ptr %11, align 8, !tbaa !19
  %73 = load i64, ptr %12, align 8, !tbaa !19
  %74 = icmp ult i64 %72, %73
  %75 = zext i1 %74 to i32
  store i32 %75, ptr %17, align 4, !tbaa !15
  %76 = load i64, ptr %11, align 8, !tbaa !19
  %77 = load i64, ptr %12, align 8, !tbaa !19
  %78 = sub i64 %76, %77
  %79 = and i64 %78, -1
  store i64 %79, ptr %11, align 8, !tbaa !19
  br label %80

80:                                               ; preds = %71, %61
  %81 = load i64, ptr %11, align 8, !tbaa !19
  %82 = and i64 %81, -1
  %83 = load ptr, ptr %15, align 8, !tbaa !18
  %84 = getelementptr inbounds nuw i64, ptr %83, i32 1
  store ptr %84, ptr %15, align 8, !tbaa !18
  store i64 %82, ptr %83, align 8, !tbaa !19
  br label %85

85:                                               ; preds = %80
  %86 = load i32, ptr %16, align 4, !tbaa !15
  %87 = add nsw i32 %86, -1
  store i32 %87, ptr %16, align 4, !tbaa !15
  br label %49, !llvm.loop !21

88:                                               ; preds = %49
  %89 = load i32, ptr %17, align 4, !tbaa !15
  %90 = icmp ne i32 %89, 0
  br i1 %90, label %91, label %116

91:                                               ; preds = %88
  %92 = load i32, ptr %10, align 4, !tbaa !15
  %93 = icmp ne i32 %92, 0
  br i1 %93, label %95, label %94

94:                                               ; preds = %91
  store i32 0, ptr %4, align 4
  store i32 1, ptr %18, align 4
  br label %136

95:                                               ; preds = %91
  br label %96

96:                                               ; preds = %114, %95
  %97 = load i32, ptr %10, align 4, !tbaa !15
  %98 = icmp ne i32 %97, 0
  br i1 %98, label %99, label %115

99:                                               ; preds = %96
  %100 = load i32, ptr %10, align 4, !tbaa !15
  %101 = add nsw i32 %100, -1
  store i32 %101, ptr %10, align 4, !tbaa !15
  %102 = load ptr, ptr %13, align 8, !tbaa !18
  %103 = getelementptr inbounds nuw i64, ptr %102, i32 1
  store ptr %103, ptr %13, align 8, !tbaa !18
  %104 = load i64, ptr %102, align 8, !tbaa !19
  store i64 %104, ptr %11, align 8, !tbaa !19
  %105 = load i64, ptr %11, align 8, !tbaa !19
  %106 = sub i64 %105, 1
  %107 = and i64 %106, -1
  store i64 %107, ptr %12, align 8, !tbaa !19
  %108 = load i64, ptr %12, align 8, !tbaa !19
  %109 = load ptr, ptr %15, align 8, !tbaa !18
  %110 = getelementptr inbounds nuw i64, ptr %109, i32 1
  store ptr %110, ptr %15, align 8, !tbaa !18
  store i64 %108, ptr %109, align 8, !tbaa !19
  %111 = load i64, ptr %11, align 8, !tbaa !19
  %112 = icmp ne i64 %111, 0
  br i1 %112, label %113, label %114

113:                                              ; preds = %99
  br label %115

114:                                              ; preds = %99
  br label %96, !llvm.loop !23

115:                                              ; preds = %113, %96
  br label %116

116:                                              ; preds = %115, %88
  %117 = load i32, ptr %10, align 4, !tbaa !15
  %118 = icmp sgt i32 %117, 0
  br i1 %118, label %119, label %129

119:                                              ; preds = %116
  %120 = load ptr, ptr %15, align 8, !tbaa !18
  %121 = load ptr, ptr %13, align 8, !tbaa !18
  %122 = icmp ne ptr %120, %121
  br i1 %122, label %123, label %129

123:                                              ; preds = %119
  %124 = load ptr, ptr %15, align 8, !tbaa !18
  %125 = load ptr, ptr %13, align 8, !tbaa !18
  %126 = load i32, ptr %10, align 4, !tbaa !15
  %127 = sext i32 %126 to i64
  %128 = mul i64 8, %127
  call void @llvm.memcpy.p0.p0.i64(ptr align 8 %124, ptr align 8 %125, i64 %128, i1 false)
  br label %129

129:                                              ; preds = %123, %119, %116
  %130 = load i32, ptr %8, align 4, !tbaa !15
  %131 = load ptr, ptr %5, align 8, !tbaa !6
  %132 = getelementptr inbounds nuw %struct.bignum_st, ptr %131, i32 0, i32 1
  store i32 %130, ptr %132, align 8, !tbaa !16
  %133 = load ptr, ptr %5, align 8, !tbaa !6
  %134 = getelementptr inbounds nuw %struct.bignum_st, ptr %133, i32 0, i32 3
  store i32 0, ptr %134, align 8, !tbaa !11
  %135 = load ptr, ptr %5, align 8, !tbaa !6
  call void @bn_correct_top(ptr noundef %135)
  store i32 1, ptr %4, align 4
  store i32 1, ptr %18, align 4
  br label %136

136:                                              ; preds = %129, %94, %37, %30
  call void @llvm.lifetime.end.p0(i64 4, ptr %17) #4
  call void @llvm.lifetime.end.p0(i64 4, ptr %16) #4
  call void @llvm.lifetime.end.p0(i64 8, ptr %15) #4
  call void @llvm.lifetime.end.p0(i64 8, ptr %14) #4
  call void @llvm.lifetime.end.p0(i64 8, ptr %13) #4
  call void @llvm.lifetime.end.p0(i64 8, ptr %12) #4
  call void @llvm.lifetime.end.p0(i64 8, ptr %11) #4
  call void @llvm.lifetime.end.p0(i64 4, ptr %10) #4
  call void @llvm.lifetime.end.p0(i64 4, ptr %9) #4
  call void @llvm.lifetime.end.p0(i64 4, ptr %8) #4
  %137 = load i32, ptr %4, align 4
  ret i32 %137
}