; Function Attrs: nounwind uwtable
define hidden range(i32 0, 2) i32 @BN_usub(ptr noundef %0, ptr noundef readonly captures(none) %1, ptr noundef readonly captures(none) %2) local_unnamed_addr #0 {
  %4 = getelementptr inbounds nuw i8, ptr %1, i64 8
  %5 = load i32, ptr %4, align 8, !tbaa !13
  %6 = getelementptr inbounds nuw i8, ptr %2, i64 8
  %7 = load i32, ptr %6, align 8, !tbaa !13
  %8 = sub nsw i32 %5, %7
  %9 = icmp slt i32 %8, 0
  br i1 %9, label %10, label %11

10:                                               ; preds = %3
  tail call void @ERR_put_error(i32 noundef 3, i32 noundef 0, i32 noundef 100, ptr noundef nonnull @.str, i32 noundef 272) #4
  br label %49

11:                                               ; preds = %3
  %12 = sext i32 %5 to i64
  %13 = tail call ptr @bn_wexpand(ptr noundef %0, i64 noundef %12) #4
  %14 = icmp eq ptr %13, null
  br i1 %14, label %49, label %15

15:                                               ; preds = %11
  %16 = load ptr, ptr %1, align 8, !tbaa !14
  %17 = load ptr, ptr %0, align 8, !tbaa !14
  %.not66 = icmp eq i32 %7, 0
  br i1 %.not66, label %.loopexit, label %.lr.ph.preheader

.lr.ph.preheader:                                 ; preds = %15
  %18 = load ptr, ptr %2, align 8, !tbaa !14
  br label %.lr.ph

.lr.ph:                                           ; preds = %.lr.ph.preheader, %30
  %.071 = phi i1 [ %33, %30 ], [ true, %.lr.ph.preheader ]
  %.04770 = phi i32 [ %32, %30 ], [ %7, %.lr.ph.preheader ]
  %.04869 = phi ptr [ %31, %30 ], [ %17, %.lr.ph.preheader ]
  %.05068 = phi ptr [ %21, %30 ], [ %18, %.lr.ph.preheader ]
  %.05167 = phi ptr [ %19, %30 ], [ %16, %.lr.ph.preheader ]
  %19 = getelementptr inbounds nuw i8, ptr %.05167, i64 8
  %20 = load i64, ptr %.05167, align 8, !tbaa !15
  %21 = getelementptr inbounds nuw i8, ptr %.05068, i64 8
  %22 = load i64, ptr %.05068, align 8, !tbaa !15
  br i1 %.071, label %27, label %23

23:                                               ; preds = %.lr.ph
  %24 = icmp ule i64 %20, %22
  %25 = xor i64 %22, -1
  %26 = add i64 %20, %25
  br label %30

27:                                               ; preds = %.lr.ph
  %28 = icmp ult i64 %20, %22
  %29 = sub i64 %20, %22
  br label %30

30:                                               ; preds = %27, %23
  %.054 = phi i64 [ %26, %23 ], [ %29, %27 ]
  %.1.in = phi i1 [ %24, %23 ], [ %28, %27 ]
  %31 = getelementptr inbounds nuw i8, ptr %.04869, i64 8
  store i64 %.054, ptr %.04869, align 8, !tbaa !15
  %32 = add nsw i32 %.04770, -1
  %33 = xor i1 %.1.in, true
  %.not = icmp eq i32 %32, 0
  br i1 %.not, label %._crit_edge, label %.lr.ph, !llvm.loop !20

._crit_edge:                                      ; preds = %30
  br i1 %.1.in, label %34, label %.loopexit

34:                                               ; preds = %._crit_edge
  %.not60 = icmp eq i32 %8, 0
  br i1 %.not60, label %49, label %.preheader

.preheader:                                       ; preds = %34, %.preheader
  %.156 = phi i32 [ %35, %.preheader ], [ %8, %34 ]
  %.253 = phi ptr [ %36, %.preheader ], [ %19, %34 ]
  %.2 = phi ptr [ %39, %.preheader ], [ %31, %34 ]
  %35 = add nsw i32 %.156, -1
  %36 = getelementptr inbounds nuw i8, ptr %.253, i64 8
  %37 = load i64, ptr %.253, align 8, !tbaa !15
  %38 = add i64 %37, -1
  %39 = getelementptr inbounds nuw i8, ptr %.2, i64 8
  store i64 %38, ptr %.2, align 8, !tbaa !15
  %40 = icmp eq i64 %37, 0
  %41 = icmp ne i32 %35, 0
  %or.cond = select i1 %40, i1 %41, i1 false
  br i1 %or.cond, label %.preheader, label %.loopexit, !llvm.loop !21

.loopexit:                                        ; preds = %.preheader, %15, %._crit_edge
  %.055 = phi i32 [ %8, %._crit_edge ], [ %8, %15 ], [ %35, %.preheader ]
  %.152 = phi ptr [ %19, %._crit_edge ], [ %16, %15 ], [ %36, %.preheader ]
  %.149 = phi ptr [ %31, %._crit_edge ], [ %17, %15 ], [ %39, %.preheader ]
  %42 = icmp slt i32 %.055, 1
  %.not61 = icmp eq ptr %.149, %.152
  %or.cond63 = select i1 %42, i1 true, i1 %.not61
  br i1 %or.cond63, label %46, label %43

43:                                               ; preds = %.loopexit
  %44 = zext nneg i32 %.055 to i64
  %45 = shl nuw nsw i64 %44, 3
  tail call void @llvm.memcpy.p0.p0.i64(ptr align 8 %.149, ptr align 8 %.152, i64 %45, i1 false)
  br label %46

46:                                               ; preds = %43, %.loopexit
  %47 = getelementptr inbounds nuw i8, ptr %0, i64 8
  store i32 %5, ptr %47, align 8, !tbaa !13
  %48 = getelementptr inbounds nuw i8, ptr %0, i64 16
  store i32 0, ptr %48, align 8, !tbaa !6
  tail call void @bn_correct_top(ptr noundef nonnull %0) #4
  br label %49

49:                                               ; preds = %34, %11, %46, %10
  %.057 = phi i32 [ 0, %10 ], [ 1, %46 ], [ 0, %11 ], [ 0, %34 ]
  ret i32 %.057
}